target datalayout = "e-m:e-p270:32:32-p271:32:32-p272:64:64-i64:64-i128:128-f80:128-n8:16:32:64-S128"
target triple = "x86_64-pc-linux-gnu"

%struct._zend_array = type { %struct._zend_refcounted_h, %union.anon.4, i32, %union.anon.6, i32, i32, i32, i32, i64, ptr }
%struct._zend_refcounted_h = type { i32, %union.anon.3 }
%union.anon.3 = type { i32 }
%union.anon.4 = type { i32 }
%union.anon.6 = type { ptr }
%struct._zval_struct = type { %union._zend_value, %union.anon, %union.anon.2 }
%union._zend_value = type { i64 }
%union.anon = type { i32 }
%union.anon.2 = type { i32 }
%struct._php_basic_globals = type { ptr, %struct._zend_array, ptr, ptr, i8, ptr, [256 x i8], i64, %struct._zend_fcall_info, %struct._zend_fcall_info_cache, ptr, %struct._zval_struct, %struct._zval_struct, i64, i64, i64, i64, ptr, ptr, %struct._php_stream_statbuf, %struct._php_stream_statbuf, ptr, i32, %struct.anon.13, %struct.anon.14, %struct.url_adapt_state_ex_t, %struct._zend_array, %struct.url_adapt_state_ex_t, %struct._zend_array, ptr, i32, i64 }
%struct._zend_fcall_info = type { i64, %struct._zval_struct, ptr, ptr, ptr, i32, ptr }
%struct._zend_fcall_info_cache = type { ptr, ptr, ptr, ptr, ptr }
%struct._php_stream_statbuf = type { %struct.stat }
%struct.stat = type { i64, i64, i64, i32, i32, i32, i32, i64, i64, i64, i64, %struct.timespec, %struct.timespec, %struct.timespec, [3 x i64] }
%struct.timespec = type { i64, i64 }
%struct.anon.13 = type { ptr, i32 }
%struct.anon.14 = type { ptr, i32 }
%struct.url_adapt_state_ex_t = type { %struct.smart_str, %struct.smart_str, %struct.smart_str, %struct.smart_str, %struct.smart_str, %struct.smart_str, %struct.smart_str, i32, ptr, i32, i32, %struct.smart_str, i32, i32, ptr }
%struct.smart_str = type { ptr, i64 }
%struct.php_serialize_data = type { %struct._zend_array, i32 }

@basic_globals = external global %struct._php_basic_globals, align 8

; Function Attrs: nounwind uwtable
define void @php_var_serialize_destroy(ptr noundef %0) #0 {
  %2 = alloca ptr, align 8
  store ptr %0, ptr %2, align 8
  %3 = load i32, ptr getelementptr inbounds (%struct._php_basic_globals, ptr @basic_globals, i32 0, i32 22), align 8
  %4 = icmp ne i32 %3, 0
  br i1 %4, label %8, label %5

5:                                                ; preds = %1
  %6 = load i32, ptr getelementptr inbounds (%struct._php_basic_globals, ptr @basic_globals, i32 0, i32 23, i32 1), align 8
  %7 = icmp eq i32 %6, 1
  br i1 %7, label %8, label %12

8:                                                ; preds = %5, %1
  %9 = load ptr, ptr %2, align 8
  %10 = getelementptr inbounds %struct.php_serialize_data, ptr %9, i32 0, i32 0
  call void @zend_hash_destroy(ptr noundef %10)
  %11 = load ptr, ptr %2, align 8
  call void @_efree(ptr noundef %11)
  br label %12

12:                                               ; preds = %8, %5
  %13 = load i32, ptr getelementptr inbounds (%struct._php_basic_globals, ptr @basic_globals, i32 0, i32 22), align 8
  %14 = icmp ne i32 %13, 0
  br i1 %14, label %20, label %15

15:                                               ; preds = %12
  %16 = load i32, ptr getelementptr inbounds (%struct._php_basic_globals, ptr @basic_globals, i32 0, i32 23, i32 1), align 8
  %17 = add i32 %16, -1
  store i32 %17, ptr getelementptr inbounds (%struct._php_basic_globals, ptr @basic_globals, i32 0, i32 23, i32 1), align 8
  %18 = icmp ne i32 %17, 0
  br i1 %18, label %20, label %19

19:                                               ; preds = %15
  store ptr null, ptr getelementptr inbounds (%struct._php_basic_globals, ptr @basic_globals, i32 0, i32 23), align 8
  br label %20

20:                                               ; preds = %19, %15, %12
  ret void
}