; Function Attrs: nounwind uwtable
define void @php_var_serialize_destroy(ptr noundef %0) local_unnamed_addr #0 {
  %2 = load i32, ptr getelementptr inbounds (%struct._php_basic_globals, ptr @basic_globals, i64 0, i32 22), align 8
  %3 = icmp ne i32 %2, 0
  %4 = load i32, ptr getelementptr inbounds (%struct._php_basic_globals, ptr @basic_globals, i64 0, i32 23, i32 1), align 8
  %5 = icmp eq i32 %4, 1
  %or.cond = select i1 %3, i1 true, i1 %5
  br i1 %or.cond, label %6, label %.thread

6:                                                ; preds = %1
  tail call void @zend_hash_destroy(ptr noundef %0) #12
  tail call void @_efree(ptr noundef %0) #12
  %.pr = load i32, ptr getelementptr inbounds (%struct._php_basic_globals, ptr @basic_globals, i64 0, i32 22), align 8
  %.not = icmp eq i32 %.pr, 0
  br i1 %.not, label %..thread_crit_edge, label %10

..thread_crit_edge:                               ; preds = %6
  %.pre = load i32, ptr getelementptr inbounds (%struct._php_basic_globals, ptr @basic_globals, i64 0, i32 23, i32 1), align 8
  br label %.thread

.thread:                                          ; preds = %..thread_crit_edge, %1
  %7 = phi i32 [ %.pre, %..thread_crit_edge ], [ %4, %1 ]
  %8 = add i32 %7, -1
  store i32 %8, ptr getelementptr inbounds (%struct._php_basic_globals, ptr @basic_globals, i64 0, i32 23, i32 1), align 8
  %.not3 = icmp eq i32 %8, 0
  br i1 %.not3, label %9, label %10

9:                                                ; preds = %.thread
  store ptr null, ptr getelementptr inbounds (%struct._php_basic_globals, ptr @basic_globals, i64 0, i32 23), align 8
  br label %10

10:                                               ; preds = %9, %.thread, %6
  ret void
}